; ModuleID = 'source-C-CXX/24/1356.cpp'
source_filename = "source-C-CXX/24/1356.cpp"
target datalayout = "e-m:e-p270:32:32-p271:32:32-p272:64:64-i64:64-f80:128-n8:16:32:64-S128"
target triple = "x86_64-pc-linux-gnu"

%"class.std::ios_base::Init" = type { i8 }
%"class.std::basic_istream" = type { i32 (...)**, i64, %"class.std::basic_ios" }
%"class.std::basic_ios" = type { %"class.std::ios_base", %"class.std::basic_ostream"*, i8, i8, %"class.std::basic_streambuf"*, %"class.std::ctype"*, %"class.std::num_put"*, %"class.std::num_get"* }
%"class.std::ios_base" = type { i32 (...)**, i64, i64, i32, i32, i32, %"struct.std::ios_base::_Callback_list"*, %"struct.std::ios_base::_Words", [8 x %"struct.std::ios_base::_Words"], i32, %"struct.std::ios_base::_Words"*, %"class.std::locale" }
%"struct.std::ios_base::_Callback_list" = type { %"struct.std::ios_base::_Callback_list"*, void (i32, %"class.std::ios_base"*, i32)*, i32, i32 }
%"struct.std::ios_base::_Words" = type { i8*, i64 }
%"class.std::locale" = type { %"class.std::locale::_Impl"* }
%"class.std::locale::_Impl" = type { i32, %"class.std::locale::facet"**, i64, %"class.std::locale::facet"**, i8** }
%"class.std::locale::facet" = type <{ i32 (...)**, i32, [4 x i8] }>
%"class.std::basic_ostream" = type { i32 (...)**, %"class.std::basic_ios" }
%"class.std::basic_streambuf" = type { i32 (...)**, i8*, i8*, i8*, i8*, i8*, i8*, %"class.std::locale" }
%"class.std::ctype" = type <{ %"class.std::locale::facet.base", [4 x i8], %struct.__locale_struct*, i8, [7 x i8], i32*, i32*, i16*, i8, [256 x i8], [256 x i8], i8, [6 x i8] }>
%"class.std::locale::facet.base" = type <{ i32 (...)**, i32 }>
%struct.__locale_struct = type { [13 x %struct.__locale_data*], i16*, i32*, i32*, [13 x i8*] }
%struct.__locale_data = type opaque
%"class.std::num_put" = type { %"class.std::locale::facet.base", [4 x i8] }
%"class.std::num_get" = type { %"class.std::locale::facet.base", [4 x i8] }

@_ZStL8__ioinit = internal global %"class.std::ios_base::Init" zeroinitializer, align 1
@__dso_handle = external hidden global i8
@_ZSt3cin = external global %"class.std::basic_istream", align 8
@_ZSt4cout = external global %"class.std::basic_ostream", align 8
@llvm.global_ctors = appending global [1 x { i32, void ()*, i8* }] [{ i32, void ()*, i8* } { i32 65535, void ()* @_GLOBAL__sub_I_1356.cpp, i8* null }]

declare void @_ZNSt8ios_base4InitC1Ev(%"class.std::ios_base::Init"* nonnull align 1 dereferenceable(1)) unnamed_addr #0

; Function Attrs: nounwind
declare void @_ZNSt8ios_base4InitD1Ev(%"class.std::ios_base::Init"* nonnull align 1 dereferenceable(1)) unnamed_addr #1

; Function Attrs: nofree nounwind
declare i32 @__cxa_atexit(void (i8*)*, i8*, i8*) local_unnamed_addr #2

; Function Attrs: mustprogress norecurse sspstrong uwtable
define dso_local i32 @main() local_unnamed_addr #3 {
  %1 = alloca i32, align 4
  %2 = alloca [100 x i32], align 16
  %3 = bitcast i32* %1 to i8*
  call void @llvm.lifetime.start.p0i8(i64 4, i8* nonnull %3) #7
  %4 = bitcast [100 x i32]* %2 to i8*
  call void @llvm.lifetime.start.p0i8(i64 400, i8* nonnull %4) #7
  call void @llvm.memset.p0i8.i64(i8* noundef nonnull align 16 dereferenceable(400) %4, i8 0, i64 400, i1 false)
  %5 = getelementptr inbounds [100 x i32], [100 x i32]* %2, i64 0, i64 99
  store i32 1, i32* %5, align 4, !tbaa !5
  %6 = call nonnull align 8 dereferenceable(16) %"class.std::basic_istream"* @_ZNSirsERi(%"class.std::basic_istream"* nonnull align 8 dereferenceable(16) @_ZSt3cin, i32* nonnull align 4 dereferenceable(4) %1)
  %7 = load i32, i32* %1, align 4, !tbaa !5
  %8 = icmp sgt i32 %7, 0
  br i1 %8, label %9, label %155

9:                                                ; preds = %0
  %10 = getelementptr inbounds [100 x i32], [100 x i32]* %2, i64 0, i64 96
  %11 = bitcast i32* %10 to <4 x i32>*
  %12 = bitcast i32* %10 to <4 x i32>*
  %13 = getelementptr inbounds [100 x i32], [100 x i32]* %2, i64 0, i64 92
  %14 = bitcast i32* %13 to <4 x i32>*
  %15 = bitcast i32* %13 to <4 x i32>*
  %16 = getelementptr inbounds [100 x i32], [100 x i32]* %2, i64 0, i64 88
  %17 = bitcast i32* %16 to <4 x i32>*
  %18 = bitcast i32* %16 to <4 x i32>*
  %19 = getelementptr inbounds [100 x i32], [100 x i32]* %2, i64 0, i64 84
  %20 = bitcast i32* %19 to <4 x i32>*
  %21 = bitcast i32* %19 to <4 x i32>*
  %22 = getelementptr inbounds [100 x i32], [100 x i32]* %2, i64 0, i64 80
  %23 = bitcast i32* %22 to <4 x i32>*
  %24 = bitcast i32* %22 to <4 x i32>*
  %25 = getelementptr inbounds [100 x i32], [100 x i32]* %2, i64 0, i64 76
  %26 = bitcast i32* %25 to <4 x i32>*
  %27 = bitcast i32* %25 to <4 x i32>*
  %28 = getelementptr inbounds [100 x i32], [100 x i32]* %2, i64 0, i64 72
  %29 = bitcast i32* %28 to <4 x i32>*
  %30 = bitcast i32* %28 to <4 x i32>*
  %31 = getelementptr inbounds [100 x i32], [100 x i32]* %2, i64 0, i64 68
  %32 = bitcast i32* %31 to <4 x i32>*
  %33 = bitcast i32* %31 to <4 x i32>*
  %34 = getelementptr inbounds [100 x i32], [100 x i32]* %2, i64 0, i64 64
  %35 = bitcast i32* %34 to <4 x i32>*
  %36 = bitcast i32* %34 to <4 x i32>*
  %37 = getelementptr inbounds [100 x i32], [100 x i32]* %2, i64 0, i64 60
  %38 = bitcast i32* %37 to <4 x i32>*
  %39 = bitcast i32* %37 to <4 x i32>*
  %40 = getelementptr inbounds [100 x i32], [100 x i32]* %2, i64 0, i64 56
  %41 = bitcast i32* %40 to <4 x i32>*
  %42 = bitcast i32* %40 to <4 x i32>*
  %43 = getelementptr inbounds [100 x i32], [100 x i32]* %2, i64 0, i64 52
  %44 = bitcast i32* %43 to <4 x i32>*
  %45 = bitcast i32* %43 to <4 x i32>*
  %46 = getelementptr inbounds [100 x i32], [100 x i32]* %2, i64 0, i64 48
  %47 = bitcast i32* %46 to <4 x i32>*
  %48 = bitcast i32* %46 to <4 x i32>*
  %49 = getelementptr inbounds [100 x i32], [100 x i32]* %2, i64 0, i64 44
  %50 = bitcast i32* %49 to <4 x i32>*
  %51 = bitcast i32* %49 to <4 x i32>*
  %52 = getelementptr inbounds [100 x i32], [100 x i32]* %2, i64 0, i64 40
  %53 = bitcast i32* %52 to <4 x i32>*
  %54 = bitcast i32* %52 to <4 x i32>*
  %55 = getelementptr inbounds [100 x i32], [100 x i32]* %2, i64 0, i64 36
  %56 = bitcast i32* %55 to <4 x i32>*
  %57 = bitcast i32* %55 to <4 x i32>*
  %58 = getelementptr inbounds [100 x i32], [100 x i32]* %2, i64 0, i64 32
  %59 = bitcast i32* %58 to <4 x i32>*
  %60 = bitcast i32* %58 to <4 x i32>*
  %61 = getelementptr inbounds [100 x i32], [100 x i32]* %2, i64 0, i64 28
  %62 = bitcast i32* %61 to <4 x i32>*
  %63 = bitcast i32* %61 to <4 x i32>*
  %64 = getelementptr inbounds [100 x i32], [100 x i32]* %2, i64 0, i64 24
  %65 = bitcast i32* %64 to <4 x i32>*
  %66 = bitcast i32* %64 to <4 x i32>*
  %67 = getelementptr inbounds [100 x i32], [100 x i32]* %2, i64 0, i64 20
  %68 = bitcast i32* %67 to <4 x i32>*
  %69 = bitcast i32* %67 to <4 x i32>*
  %70 = getelementptr inbounds [100 x i32], [100 x i32]* %2, i64 0, i64 16
  %71 = bitcast i32* %70 to <4 x i32>*
  %72 = bitcast i32* %70 to <4 x i32>*
  %73 = getelementptr inbounds [100 x i32], [100 x i32]* %2, i64 0, i64 12
  %74 = bitcast i32* %73 to <4 x i32>*
  %75 = bitcast i32* %73 to <4 x i32>*
  %76 = getelementptr inbounds [100 x i32], [100 x i32]* %2, i64 0, i64 8
  %77 = bitcast i32* %76 to <4 x i32>*
  %78 = bitcast i32* %76 to <4 x i32>*
  %79 = getelementptr inbounds [100 x i32], [100 x i32]* %2, i64 0, i64 4
  %80 = bitcast i32* %79 to <4 x i32>*
  %81 = bitcast i32* %79 to <4 x i32>*
  %82 = bitcast [100 x i32]* %2 to <4 x i32>*
  %83 = bitcast [100 x i32]* %2 to <4 x i32>*
  br label %84

84:                                               ; preds = %9, %152
  %85 = phi i32 [ %153, %152 ], [ 0, %9 ]
  %86 = load <4 x i32>, <4 x i32>* %11, align 16, !tbaa !5
  %87 = shl nsw <4 x i32> %86, <i32 1, i32 1, i32 1, i32 1>
  store <4 x i32> %87, <4 x i32>* %12, align 16, !tbaa !5
  %88 = load <4 x i32>, <4 x i32>* %14, align 16, !tbaa !5
  %89 = shl nsw <4 x i32> %88, <i32 1, i32 1, i32 1, i32 1>
  store <4 x i32> %89, <4 x i32>* %15, align 16, !tbaa !5
  %90 = load <4 x i32>, <4 x i32>* %17, align 16, !tbaa !5
  %91 = shl nsw <4 x i32> %90, <i32 1, i32 1, i32 1, i32 1>
  store <4 x i32> %91, <4 x i32>* %18, align 16, !tbaa !5
  %92 = load <4 x i32>, <4 x i32>* %20, align 16, !tbaa !5
  %93 = shl nsw <4 x i32> %92, <i32 1, i32 1, i32 1, i32 1>
  store <4 x i32> %93, <4 x i32>* %21, align 16, !tbaa !5
  %94 = load <4 x i32>, <4 x i32>* %23, align 16, !tbaa !5
  %95 = shl nsw <4 x i32> %94, <i32 1, i32 1, i32 1, i32 1>
  store <4 x i32> %95, <4 x i32>* %24, align 16, !tbaa !5
  %96 = load <4 x i32>, <4 x i32>* %26, align 16, !tbaa !5
  %97 = shl nsw <4 x i32> %96, <i32 1, i32 1, i32 1, i32 1>
  store <4 x i32> %97, <4 x i32>* %27, align 16, !tbaa !5
  %98 = load <4 x i32>, <4 x i32>* %29, align 16, !tbaa !5
  %99 = shl nsw <4 x i32> %98, <i32 1, i32 1, i32 1, i32 1>
  store <4 x i32> %99, <4 x i32>* %30, align 16, !tbaa !5
  %100 = load <4 x i32>, <4 x i32>* %32, align 16, !tbaa !5
  %101 = shl nsw <4 x i32> %100, <i32 1, i32 1, i32 1, i32 1>
  store <4 x i32> %101, <4 x i32>* %33, align 16, !tbaa !5
  %102 = load <4 x i32>, <4 x i32>* %35, align 16, !tbaa !5
  %103 = shl nsw <4 x i32> %102, <i32 1, i32 1, i32 1, i32 1>
  store <4 x i32> %103, <4 x i32>* %36, align 16, !tbaa !5
  %104 = load <4 x i32>, <4 x i32>* %38, align 16, !tbaa !5
  %105 = shl nsw <4 x i32> %104, <i32 1, i32 1, i32 1, i32 1>
  store <4 x i32> %105, <4 x i32>* %39, align 16, !tbaa !5
  %106 = load <4 x i32>, <4 x i32>* %41, align 16, !tbaa !5
  %107 = shl nsw <4 x i32> %106, <i32 1, i32 1, i32 1, i32 1>
  store <4 x i32> %107, <4 x i32>* %42, align 16, !tbaa !5
  %108 = load <4 x i32>, <4 x i32>* %44, align 16, !tbaa !5
  %109 = shl nsw <4 x i32> %108, <i32 1, i32 1, i32 1, i32 1>
  store <4 x i32> %109, <4 x i32>* %45, align 16, !tbaa !5
  %110 = load <4 x i32>, <4 x i32>* %47, align 16, !tbaa !5
  %111 = shl nsw <4 x i32> %110, <i32 1, i32 1, i32 1, i32 1>
  store <4 x i32> %111, <4 x i32>* %48, align 16, !tbaa !5
  %112 = load <4 x i32>, <4 x i32>* %50, align 16, !tbaa !5
  %113 = shl nsw <4 x i32> %112, <i32 1, i32 1, i32 1, i32 1>
  store <4 x i32> %113, <4 x i32>* %51, align 16, !tbaa !5
  %114 = load <4 x i32>, <4 x i32>* %53, align 16, !tbaa !5
  %115 = shl nsw <4 x i32> %114, <i32 1, i32 1, i32 1, i32 1>
  store <4 x i32> %115, <4 x i32>* %54, align 16, !tbaa !5
  %116 = load <4 x i32>, <4 x i32>* %56, align 16, !tbaa !5
  %117 = shl nsw <4 x i32> %116, <i32 1, i32 1, i32 1, i32 1>
  store <4 x i32> %117, <4 x i32>* %57, align 16, !tbaa !5
  %118 = load <4 x i32>, <4 x i32>* %59, align 16, !tbaa !5
  %119 = shl nsw <4 x i32> %118, <i32 1, i32 1, i32 1, i32 1>
  store <4 x i32> %119, <4 x i32>* %60, align 16, !tbaa !5
  %120 = load <4 x i32>, <4 x i32>* %62, align 16, !tbaa !5
  %121 = shl nsw <4 x i32> %120, <i32 1, i32 1, i32 1, i32 1>
  store <4 x i32> %121, <4 x i32>* %63, align 16, !tbaa !5
  %122 = load <4 x i32>, <4 x i32>* %65, align 16, !tbaa !5
  %123 = shl nsw <4 x i32> %122, <i32 1, i32 1, i32 1, i32 1>
  store <4 x i32> %123, <4 x i32>* %66, align 16, !tbaa !5
  %124 = load <4 x i32>, <4 x i32>* %68, align 16, !tbaa !5
  %125 = shl nsw <4 x i32> %124, <i32 1, i32 1, i32 1, i32 1>
  store <4 x i32> %125, <4 x i32>* %69, align 16, !tbaa !5
  %126 = load <4 x i32>, <4 x i32>* %71, align 16, !tbaa !5
  %127 = shl nsw <4 x i32> %126, <i32 1, i32 1, i32 1, i32 1>
  store <4 x i32> %127, <4 x i32>* %72, align 16, !tbaa !5
  %128 = load <4 x i32>, <4 x i32>* %74, align 16, !tbaa !5
  %129 = shl nsw <4 x i32> %128, <i32 1, i32 1, i32 1, i32 1>
  store <4 x i32> %129, <4 x i32>* %75, align 16, !tbaa !5
  %130 = load <4 x i32>, <4 x i32>* %77, align 16, !tbaa !5
  %131 = shl nsw <4 x i32> %130, <i32 1, i32 1, i32 1, i32 1>
  store <4 x i32> %131, <4 x i32>* %78, align 16, !tbaa !5
  %132 = load <4 x i32>, <4 x i32>* %80, align 16, !tbaa !5
  %133 = shl nsw <4 x i32> %132, <i32 1, i32 1, i32 1, i32 1>
  store <4 x i32> %133, <4 x i32>* %81, align 16, !tbaa !5
  %134 = load <4 x i32>, <4 x i32>* %82, align 16, !tbaa !5
  %135 = shl nsw <4 x i32> %134, <i32 1, i32 1, i32 1, i32 1>
  store <4 x i32> %135, <4 x i32>* %83, align 16, !tbaa !5
  br label %136

136:                                              ; preds = %84, %149
  %137 = phi i64 [ %150, %149 ], [ 1, %84 ]
  %138 = sub nuw nsw i64 100, %137
  %139 = getelementptr inbounds [100 x i32], [100 x i32]* %2, i64 0, i64 %138
  %140 = load i32, i32* %139, align 4, !tbaa !5
  %141 = icmp sgt i32 %140, 9
  br i1 %141, label %142, label %149

142:                                              ; preds = %136
  %143 = udiv i32 %140, 10
  %144 = sub nsw i64 99, %137
  %145 = getelementptr inbounds [100 x i32], [100 x i32]* %2, i64 0, i64 %144
  %146 = load i32, i32* %145, align 4, !tbaa !5
  %147 = add nsw i32 %146, %143
  store i32 %147, i32* %145, align 4, !tbaa !5
  %148 = urem i32 %140, 10
  store i32 %148, i32* %139, align 4, !tbaa !5
  br label %149

149:                                              ; preds = %136, %142
  %150 = add nuw nsw i64 %137, 1
  %151 = icmp eq i64 %150, 101
  br i1 %151, label %152, label %136, !llvm.loop !9

152:                                              ; preds = %149
  %153 = add nuw nsw i32 %85, 1
  %154 = icmp eq i32 %153, %7
  br i1 %154, label %155, label %84, !llvm.loop !11

155:                                              ; preds = %152, %0
  br label %156

156:                                              ; preds = %195, %155
  %157 = phi i64 [ 0, %155 ], [ %196, %195 ]
  %158 = getelementptr inbounds [100 x i32], [100 x i32]* %2, i64 0, i64 %157
  %159 = load i32, i32* %158, align 4, !tbaa !5
  %160 = icmp eq i32 %159, 0
  br i1 %160, label %161, label %166

161:                                              ; preds = %156
  %162 = add nuw nsw i64 %157, 1
  %163 = getelementptr inbounds [100 x i32], [100 x i32]* %2, i64 0, i64 %162
  %164 = load i32, i32* %163, align 4, !tbaa !5
  %165 = icmp eq i32 %164, 0
  br i1 %165, label %180, label %166

166:                                              ; preds = %190, %185, %180, %161, %156
  %167 = phi i64 [ %157, %156 ], [ %162, %161 ], [ %181, %180 ], [ %186, %185 ], [ %191, %190 ]
  %168 = trunc i64 %167 to i32
  %169 = icmp ult i32 %168, 100
  br i1 %169, label %170, label %179

170:                                              ; preds = %166
  %171 = and i64 %167, 4294967295
  br label %172

172:                                              ; preds = %170, %172
  %173 = phi i64 [ %171, %170 ], [ %177, %172 ]
  %174 = getelementptr inbounds [100 x i32], [100 x i32]* %2, i64 0, i64 %173
  %175 = load i32, i32* %174, align 4, !tbaa !5
  %176 = call nonnull align 8 dereferenceable(8) %"class.std::basic_ostream"* @_ZNSolsEi(%"class.std::basic_ostream"* nonnull align 8 dereferenceable(8) @_ZSt4cout, i32 %175)
  %177 = add nuw nsw i64 %173, 1
  %178 = icmp eq i64 %177, 100
  br i1 %178, label %179, label %172, !llvm.loop !12

179:                                              ; preds = %195, %172, %166
  call void @llvm.lifetime.end.p0i8(i64 400, i8* nonnull %4) #7
  call void @llvm.lifetime.end.p0i8(i64 4, i8* nonnull %3) #7
  ret i32 0

180:                                              ; preds = %161
  %181 = add nuw nsw i64 %157, 2
  %182 = getelementptr inbounds [100 x i32], [100 x i32]* %2, i64 0, i64 %181
  %183 = load i32, i32* %182, align 4, !tbaa !5
  %184 = icmp eq i32 %183, 0
  br i1 %184, label %185, label %166

185:                                              ; preds = %180
  %186 = add nuw nsw i64 %157, 3
  %187 = getelementptr inbounds [100 x i32], [100 x i32]* %2, i64 0, i64 %186
  %188 = load i32, i32* %187, align 4, !tbaa !5
  %189 = icmp eq i32 %188, 0
  br i1 %189, label %190, label %166

190:                                              ; preds = %185
  %191 = add nuw nsw i64 %157, 4
  %192 = getelementptr inbounds [100 x i32], [100 x i32]* %2, i64 0, i64 %191
  %193 = load i32, i32* %192, align 4, !tbaa !5
  %194 = icmp eq i32 %193, 0
  br i1 %194, label %195, label %166

195:                                              ; preds = %190
  %196 = add nuw nsw i64 %157, 5
  %197 = icmp eq i64 %196, 100
  br i1 %197, label %179, label %156, !llvm.loop !13
}

; Function Attrs: argmemonly mustprogress nofree nosync nounwind willreturn
declare void @llvm.lifetime.start.p0i8(i64 immarg, i8* nocapture) #4

; Function Attrs: argmemonly mustprogress nofree nounwind willreturn writeonly
declare void @llvm.memset.p0i8.i64(i8* nocapture writeonly, i8, i64, i1 immarg) #5

declare nonnull align 8 dereferenceable(16) %"class.std::basic_istream"* @_ZNSirsERi(%"class.std::basic_istream"* nonnull align 8 dereferenceable(16), i32* nonnull align 4 dereferenceable(4)) local_unnamed_addr #0

declare nonnull align 8 dereferenceable(8) %"class.std::basic_ostream"* @_ZNSolsEi(%"class.std::basic_ostream"* nonnull align 8 dereferenceable(8), i32) local_unnamed_addr #0

; Function Attrs: argmemonly mustprogress nofree nosync nounwind willreturn
declare void @llvm.lifetime.end.p0i8(i64 immarg, i8* nocapture) #4

; Function Attrs: sspstrong uwtable
define internal void @_GLOBAL__sub_I_1356.cpp() #6 section ".text.startup" {
  tail call void @_ZNSt8ios_base4InitC1Ev(%"class.std::ios_base::Init"* nonnull align 1 dereferenceable(1) @_ZStL8__ioinit)
  %1 = tail call i32 @__cxa_atexit(void (i8*)* bitcast (void (%"class.std::ios_base::Init"*)* @_ZNSt8ios_base4InitD1Ev to void (i8*)*), i8* getelementptr inbounds (%"class.std::ios_base::Init", %"class.std::ios_base::Init"* @_ZStL8__ioinit, i64 0, i32 0), i8* nonnull @__dso_handle) #7
  ret void
}


!llvm.module.flags = !{!0, !1, !2, !3}
!llvm.ident = !{!4}

!0 = !{i32 1, !"wchar_size", i32 4}
!1 = !{i32 7, !"PIC Level", i32 2}
!2 = !{i32 7, !"PIE Level", i32 2}
!3 = !{i32 7, !"uwtable", i32 1}
!4 = !{!"clang version 13.0.0"}
!5 = !{!6, !6, i64 0}
!6 = !{!"int", !7, i64 0}
!7 = !{!"omnipotent char", !8, i64 0}
!8 = !{!"Simple C++ TBAA"}
!9 = distinct !{!9, !10}
!10 = !{!"llvm.loop.mustprogress"}
!11 = distinct !{!11, !10}
!12 = distinct !{!12, !10}
!13 = distinct !{!13, !10}
